target datalayout = "e-m:e-p270:32:32-p271:32:32-p272:64:64-i64:64-i128:128-f80:128-n8:16:32:64-S128"
target triple = "x86_64-pc-linux-gnu"

%"class.icu_77::Quantifier" = type { %"class.icu_77::UnicodeFunctor", %"class.icu_77::UnicodeMatcher", ptr, i32, i32 }
%"class.icu_77::UnicodeFunctor" = type { %"class.icu_77::UObject" }
%"class.icu_77::UObject" = type { ptr }
%"class.icu_77::UnicodeMatcher" = type { ptr }

@_ZTVN6icu_777UObjectE = available_externally unnamed_addr constant { [5 x ptr] } { [5 x ptr] [ptr null, ptr @_ZTIN6icu_777UObjectE, ptr @_ZN6icu_777UObjectD1Ev, ptr @_ZN6icu_777UObjectD0Ev, ptr @_ZNK6icu_777UObject17getDynamicClassIDEv] }, align 8

; Function Attrs: inlinehint mustprogress nounwind uwtable
define linkonce_odr void @_ZN6icu_777UObjectC2ERKS0_(ptr noundef nonnull align 8 dereferenceable(8) %0, ptr noundef nonnull align 8 dereferenceable(8) %1) unnamed_addr #2 comdat align 2 {
  %3 = alloca ptr, align 8
  %4 = alloca ptr, align 8
  store ptr %0, ptr %3, align 8, !tbaa !53
  store ptr %1, ptr %4, align 8, !tbaa !53
  %5 = load ptr, ptr %3, align 8
  store ptr getelementptr inbounds inrange(-16, 24) ({ [5 x ptr] }, ptr @_ZTVN6icu_777UObjectE, i32 0, i32 0, i32 2), ptr %5, align 8, !tbaa !27
  ret void
}

; Function Attrs: inlinehint mustprogress nounwind uwtable
define linkonce_odr void @_ZN6icu_7714UnicodeMatcherC2ERKS0_(ptr noundef nonnull align 8 dereferenceable(8) %0, ptr noundef nonnull align 8 dereferenceable(8) %1) unnamed_addr #2 comdat align 2 {
  %3 = alloca ptr, align 8
  %4 = alloca ptr, align 8
  store ptr %0, ptr %3, align 8, !tbaa !36
  store ptr %1, ptr %4, align 8, !tbaa !36
  %5 = load ptr, ptr %3, align 8
  store ptr getelementptr inbounds inrange(-16, 48) ({ [8 x ptr] }, ptr @_ZTVN6icu_7714UnicodeMatcherE, i32 0, i32 0, i32 2), ptr %5, align 8, !tbaa !27
  ret void
}

; Function Attrs: inlinehint mustprogress nounwind uwtable
define linkonce_odr void @_ZN6icu_7714UnicodeFunctorC2ERKS0_(ptr noundef nonnull align 8 dereferenceable(8) %0, ptr noundef nonnull align 8 dereferenceable(8) %1) unnamed_addr #2 comdat align 2 {
  %3 = alloca ptr, align 8
  %4 = alloca ptr, align 8
  store ptr %0, ptr %3, align 8, !tbaa !25
  store ptr %1, ptr %4, align 8, !tbaa !25
  %5 = load ptr, ptr %3, align 8
  %6 = load ptr, ptr %4, align 8, !tbaa !25
  call void @_ZN6icu_777UObjectC2ERKS0_(ptr noundef nonnull align 8 dereferenceable(8) %5, ptr noundef nonnull align 8 dereferenceable(8) %6) #12
  store ptr getelementptr inbounds inrange(-16, 56) ({ [9 x ptr] }, ptr @_ZTVN6icu_7714UnicodeFunctorE, i32 0, i32 0, i32 2), ptr %5, align 8, !tbaa !27
  ret void
}

; Function Attrs: mustprogress uwtable
define void @_ZN6icu_7710QuantifierC2ERKS0_(ptr noundef nonnull align 8 dereferenceable(32) %0, ptr noundef nonnull align 8 dereferenceable(32) %1) unnamed_addr #1 align 2 personality ptr @__gxx_personality_v0 {
  %3 = alloca ptr, align 8
  %4 = alloca ptr, align 8
  %5 = alloca ptr, align 8
  %6 = alloca i32, align 4
  store ptr %0, ptr %3, align 8, !tbaa !23
  store ptr %1, ptr %4, align 8, !tbaa !23
  %7 = load ptr, ptr %3, align 8
  %8 = load ptr, ptr %4, align 8, !tbaa !23
  call void @_ZN6icu_7714UnicodeFunctorC2ERKS0_(ptr noundef nonnull align 8 dereferenceable(8) %7, ptr noundef nonnull align 8 dereferenceable(8) %8) #12
  %9 = getelementptr inbounds i8, ptr %7, i64 8
  %10 = load ptr, ptr %4, align 8, !tbaa !23
  %11 = getelementptr inbounds i8, ptr %10, i64 8
  call void @_ZN6icu_7714UnicodeMatcherC2ERKS0_(ptr noundef nonnull align 8 dereferenceable(8) %9, ptr noundef nonnull align 8 dereferenceable(8) %11) #12
  store ptr getelementptr inbounds inrange(-16, 88) ({ [13 x ptr], [8 x ptr] }, ptr @_ZTVN6icu_7710QuantifierE, i32 0, i32 0, i32 2), ptr %7, align 8, !tbaa !27
  %12 = getelementptr inbounds i8, ptr %7, i64 8
  store ptr getelementptr inbounds inrange(-16, 48) ({ [13 x ptr], [8 x ptr] }, ptr @_ZTVN6icu_7710QuantifierE, i32 0, i32 1, i32 2), ptr %12, align 8, !tbaa !27
  %13 = getelementptr inbounds nuw %"class.icu_77::Quantifier", ptr %7, i32 0, i32 2
  %14 = load ptr, ptr %4, align 8, !tbaa !23
  %15 = getelementptr inbounds nuw %"class.icu_77::Quantifier", ptr %14, i32 0, i32 2
  %16 = load ptr, ptr %15, align 8, !tbaa !29
  %17 = load ptr, ptr %16, align 8, !tbaa !27
  %18 = getelementptr inbounds ptr, ptr %17, i64 3
  %19 = load ptr, ptr %18, align 8
  %20 = invoke noundef ptr %19(ptr noundef nonnull align 8 dereferenceable(8) %16)
          to label %21 unwind label %30

21:                                               ; preds = %2
  store ptr %20, ptr %13, align 8, !tbaa !29
  %22 = getelementptr inbounds nuw %"class.icu_77::Quantifier", ptr %7, i32 0, i32 3
  %23 = load ptr, ptr %4, align 8, !tbaa !23
  %24 = getelementptr inbounds nuw %"class.icu_77::Quantifier", ptr %23, i32 0, i32 3
  %25 = load i32, ptr %24, align 8, !tbaa !34
  store i32 %25, ptr %22, align 8, !tbaa !34
  %26 = getelementptr inbounds nuw %"class.icu_77::Quantifier", ptr %7, i32 0, i32 4
  %27 = load ptr, ptr %4, align 8, !tbaa !23
  %28 = getelementptr inbounds nuw %"class.icu_77::Quantifier", ptr %27, i32 0, i32 4
  %29 = load i32, ptr %28, align 4, !tbaa !35
  store i32 %29, ptr %26, align 4, !tbaa !35
  ret void

30:                                               ; preds = %2
  %31 = landingpad { ptr, i32 }
          cleanup
  %32 = extractvalue { ptr, i32 } %31, 0
  store ptr %32, ptr %5, align 8
  %33 = extractvalue { ptr, i32 } %31, 1
  store i32 %33, ptr %6, align 4
  %34 = getelementptr inbounds i8, ptr %7, i64 8
  call void @_ZN6icu_7714UnicodeMatcherD2Ev(ptr noundef nonnull align 8 dereferenceable(8) %34) #12
  call void @_ZN6icu_7714UnicodeFunctorD2Ev(ptr noundef nonnull align 8 dereferenceable(8) %7) #12
  br label %35

35:                                               ; preds = %30
  %36 = load ptr, ptr %5, align 8
  %37 = load i32, ptr %6, align 4
  %38 = insertvalue { ptr, i32 } poison, ptr %36, 0
  %39 = insertvalue { ptr, i32 } %38, i32 %37, 1
  resume { ptr, i32 } %39
}