; Function Attrs: mustprogress uwtable
define void @_ZN6icu_7710QuantifierC2ERKS0_(ptr noundef nonnull align 8 dereferenceable(32) initializes((0, 16)) %0, ptr noundef nonnull readonly align 8 captures(none) dereferenceable(32) %1) unnamed_addr #1 align 2 personality ptr @__gxx_personality_v0 {
  %3 = getelementptr inbounds nuw i8, ptr %0, i64 8
  store ptr getelementptr inbounds nuw inrange(-16, 88) (i8, ptr @_ZTVN6icu_7710QuantifierE, i64 16), ptr %0, align 8, !tbaa !15
  store ptr getelementptr inbounds nuw inrange(-16, 48) (i8, ptr @_ZTVN6icu_7710QuantifierE, i64 120), ptr %3, align 8, !tbaa !15
  %4 = getelementptr inbounds nuw i8, ptr %1, i64 16
  %5 = load ptr, ptr %4, align 8, !tbaa !17
  %6 = load ptr, ptr %5, align 8, !tbaa !15
  %7 = getelementptr inbounds nuw i8, ptr %6, i64 24
  %8 = load ptr, ptr %7, align 8
  %9 = invoke noundef ptr %8(ptr noundef nonnull align 8 dereferenceable(8) %5)
          to label %10 unwind label %18

10:                                               ; preds = %2
  %11 = getelementptr inbounds nuw i8, ptr %0, i64 16
  store ptr %9, ptr %11, align 8, !tbaa !17
  %12 = getelementptr inbounds nuw i8, ptr %0, i64 24
  %13 = getelementptr inbounds nuw i8, ptr %1, i64 24
  %14 = load i32, ptr %13, align 8, !tbaa !23
  store i32 %14, ptr %12, align 8, !tbaa !23
  %15 = getelementptr inbounds nuw i8, ptr %0, i64 28
  %16 = getelementptr inbounds nuw i8, ptr %1, i64 28
  %17 = load i32, ptr %16, align 4, !tbaa !24
  store i32 %17, ptr %15, align 4, !tbaa !24
  ret void

18:                                               ; preds = %2
  %19 = landingpad { ptr, i32 }
          cleanup
  tail call void @_ZN6icu_7714UnicodeMatcherD2Ev(ptr noundef nonnull align 8 dereferenceable(8) %3) #16
  tail call void @_ZN6icu_7714UnicodeFunctorD2Ev(ptr noundef nonnull align 8 dereferenceable(8) %0) #16
  resume { ptr, i32 } %19
}